target datalayout = "e-m:e-p270:32:32-p271:32:32-p272:64:64-i64:64-i128:128-f80:128-n8:16:32:64-S128"
target triple = "x86_64-pc-linux-gnu"

; Function Attrs: nounwind uwtable
define i32 @PGTYPESnumeric_to_long(ptr noundef %0, ptr noundef %1) #0 {
  %3 = alloca i32, align 4
  %4 = alloca ptr, align 8
  %5 = alloca ptr, align 8
  %6 = alloca ptr, align 8
  %7 = alloca ptr, align 8
  %8 = alloca i32, align 4
  store ptr %0, ptr %4, align 8
  store ptr %1, ptr %5, align 8
  call void @llvm.lifetime.start.p0(i64 8, ptr %6) #8
  %9 = load ptr, ptr %4, align 8
  %10 = call ptr @PGTYPESnumeric_to_asc(ptr noundef %9, i32 noundef 0)
  store ptr %10, ptr %6, align 8
  call void @llvm.lifetime.start.p0(i64 8, ptr %7) #8
  %11 = load ptr, ptr %6, align 8
  %12 = icmp eq ptr %11, null
  br i1 %12, label %13, label %14

13:                                               ; preds = %2
  store i32 -1, ptr %3, align 4
  store i32 1, ptr %8, align 4
  br label %39

14:                                               ; preds = %2
  %15 = call ptr @__errno_location() #9
  store i32 0, ptr %15, align 4
  %16 = load ptr, ptr %6, align 8
  %17 = call i64 @strtol(ptr noundef %16, ptr noundef %7, i32 noundef 10) #8
  %18 = load ptr, ptr %5, align 8
  store i64 %17, ptr %18, align 8
  %19 = load ptr, ptr %7, align 8
  %20 = load ptr, ptr %6, align 8
  %21 = icmp eq ptr %19, %20
  br i1 %21, label %22, label %24

22:                                               ; preds = %14
  %23 = load ptr, ptr %6, align 8
  call void @free(ptr noundef %23) #8
  store i32 -1, ptr %3, align 4
  store i32 1, ptr %8, align 4
  br label %39

24:                                               ; preds = %14
  %25 = load ptr, ptr %6, align 8
  call void @free(ptr noundef %25) #8
  %26 = call ptr @__errno_location() #9
  %27 = load i32, ptr %26, align 4
  %28 = icmp eq i32 %27, 34
  br i1 %28, label %29, label %38

29:                                               ; preds = %24
  %30 = load ptr, ptr %5, align 8
  %31 = load i64, ptr %30, align 8
  %32 = icmp eq i64 %31, -9223372036854775808
  br i1 %32, label %33, label %35

33:                                               ; preds = %29
  %34 = call ptr @__errno_location() #9
  store i32 304, ptr %34, align 4
  br label %37

35:                                               ; preds = %29
  %36 = call ptr @__errno_location() #9
  store i32 301, ptr %36, align 4
  br label %37

37:                                               ; preds = %35, %33
  store i32 -1, ptr %3, align 4
  store i32 1, ptr %8, align 4
  br label %39

38:                                               ; preds = %24
  store i32 0, ptr %3, align 4
  store i32 1, ptr %8, align 4
  br label %39

39:                                               ; preds = %38, %37, %22, %13
  call void @llvm.lifetime.end.p0(i64 8, ptr %7) #8
  call void @llvm.lifetime.end.p0(i64 8, ptr %6) #8
  %40 = load i32, ptr %3, align 4
  ret i32 %40
}