; Function Attrs: nounwind uwtable
define range(i32 -1, 1) i32 @PGTYPESnumeric_to_long(ptr noundef readonly captures(none) %0, ptr noundef captures(none) %1) local_unnamed_addr #0 {
  %3 = alloca ptr, align 8
  %4 = tail call ptr @PGTYPESnumeric_to_asc(ptr noundef %0, i32 noundef 0)
  call void @llvm.lifetime.start.p0(i64 8, ptr nonnull %3) #14
  %5 = icmp eq ptr %4, null
  br i1 %5, label %17, label %6

6:                                                ; preds = %2
  %7 = tail call ptr @__errno_location() #15
  store i32 0, ptr %7, align 4
  %8 = call i64 @strtol(ptr noundef nonnull %4, ptr noundef nonnull %3, i32 noundef 10) #14
  store i64 %8, ptr %1, align 8
  %9 = load ptr, ptr %3, align 8
  %10 = icmp eq ptr %9, %4
  tail call void @free(ptr noundef nonnull %4) #14
  br i1 %10, label %17, label %11

11:                                               ; preds = %6
  %12 = load i32, ptr %7, align 4
  %13 = icmp eq i32 %12, 34
  br i1 %13, label %14, label %17

14:                                               ; preds = %11
  %15 = load i64, ptr %1, align 8
  %16 = icmp eq i64 %15, -9223372036854775808
  %. = select i1 %16, i32 304, i32 301
  store i32 %., ptr %7, align 4
  br label %17

17:                                               ; preds = %6, %11, %2, %14
  %.0 = phi i32 [ -1, %14 ], [ -1, %2 ], [ 0, %11 ], [ -1, %6 ]
  call void @llvm.lifetime.end.p0(i64 8, ptr nonnull %3) #14
  ret i32 %.0
}